; ModuleID = 'source-C-CXX/30/2040.c'
source_filename = "source-C-CXX/30/2040.c"
target datalayout = "e-m:e-p270:32:32-p271:32:32-p272:64:64-i64:64-f80:128-n8:16:32:64-S128"
target triple = "x86_64-pc-linux-gnu"

%struct.a = type { [100 x i8], %struct.a* }

@.str = private unnamed_addr constant [4 x i8] c"end\00", align 1

; Function Attrs: nounwind sspstrong uwtable
define dso_local i32 @main() local_unnamed_addr #0 {
  %1 = tail call noalias align 16 dereferenceable_or_null(112) i8* @malloc(i64 112) #5
  %2 = bitcast i8* %1 to %struct.a*
  %3 = getelementptr inbounds %struct.a, %struct.a* %2, i64 0, i32 0, i64 0
  %4 = tail call i32 (i8*, ...) bitcast (i32 (...)* @gets to i32 (i8*, ...)*)(i8* %3) #5
  %5 = tail call noalias align 16 dereferenceable_or_null(112) i8* @malloc(i64 112) #5
  %6 = bitcast i8* %5 to %struct.a*
  %7 = getelementptr inbounds %struct.a, %struct.a* %6, i64 0, i32 0, i64 0
  %8 = tail call i32 (i8*, ...) bitcast (i32 (...)* @gets to i32 (i8*, ...)*)(i8* %7) #5
  %9 = tail call i32 @strcmp(i8* noundef nonnull dereferenceable(1) %7, i8* noundef nonnull dereferenceable(4) getelementptr inbounds ([4 x i8], [4 x i8]* @.str, i64 0, i64 0)) #6
  %10 = icmp eq i32 %9, 0
  br i1 %10, label %21, label %11

11:                                               ; preds = %0, %11
  %12 = phi %struct.a* [ %13, %11 ], [ %2, %0 ]
  %13 = phi %struct.a* [ %16, %11 ], [ %6, %0 ]
  %14 = getelementptr inbounds %struct.a, %struct.a* %13, i64 0, i32 1
  store %struct.a* %12, %struct.a** %14, align 8, !tbaa !5
  %15 = tail call noalias align 16 dereferenceable_or_null(112) i8* @malloc(i64 112) #5
  %16 = bitcast i8* %15 to %struct.a*
  %17 = getelementptr inbounds %struct.a, %struct.a* %16, i64 0, i32 0, i64 0
  %18 = tail call i32 (i8*, ...) bitcast (i32 (...)* @gets to i32 (i8*, ...)*)(i8* %17) #5
  %19 = tail call i32 @strcmp(i8* noundef nonnull dereferenceable(1) %17, i8* noundef nonnull dereferenceable(4) getelementptr inbounds ([4 x i8], [4 x i8]* @.str, i64 0, i64 0)) #6
  %20 = icmp eq i32 %19, 0
  br i1 %20, label %21, label %11, !llvm.loop !10

21:                                               ; preds = %11, %0
  %22 = phi %struct.a* [ %2, %0 ], [ %13, %11 ]
  %23 = getelementptr inbounds %struct.a, %struct.a* %2, i64 0, i32 1
  store %struct.a* null, %struct.a** %23, align 8, !tbaa !5
  br label %24

24:                                               ; preds = %21, %24
  %25 = phi %struct.a* [ %22, %21 ], [ %29, %24 ]
  %26 = getelementptr inbounds %struct.a, %struct.a* %25, i64 0, i32 0, i64 0
  %27 = tail call i32 @puts(i8* nonnull dereferenceable(1) %26)
  %28 = getelementptr inbounds %struct.a, %struct.a* %25, i64 0, i32 1
  %29 = load %struct.a*, %struct.a** %28, align 8, !tbaa !5
  %30 = icmp eq %struct.a* %29, null
  br i1 %30, label %31, label %24, !llvm.loop !13

31:                                               ; preds = %24
  ret i32 0
}

; Function Attrs: inaccessiblememonly mustprogress nofree nounwind willreturn
declare noalias noundef align 16 i8* @malloc(i64 noundef) local_unnamed_addr #1

declare i32 @gets(...) local_unnamed_addr #2

; Function Attrs: argmemonly mustprogress nofree nounwind readonly willreturn
declare i32 @strcmp(i8* nocapture, i8* nocapture) local_unnamed_addr #3

; Function Attrs: nofree nounwind
declare noundef i32 @puts(i8* nocapture noundef readonly) local_unnamed_addr #4


!llvm.module.flags = !{!0, !1, !2, !3}
!llvm.ident = !{!4}

!0 = !{i32 1, !"wchar_size", i32 4}
!1 = !{i32 7, !"PIC Level", i32 2}
!2 = !{i32 7, !"PIE Level", i32 2}
!3 = !{i32 7, !"uwtable", i32 1}
!4 = !{!"clang version 13.0.0"}
!5 = !{!6, !9, i64 104}
!6 = !{!"a", !7, i64 0, !9, i64 104}
!7 = !{!"omnipotent char", !8, i64 0}
!8 = !{!"Simple C/C++ TBAA"}
!9 = !{!"any pointer", !7, i64 0}
!10 = distinct !{!10, !11, !12}
!11 = !{!"llvm.loop.mustprogress"}
!12 = !{!"llvm.loop.peeled.count", i32 1}
!13 = distinct !{!13, !11}
